target datalayout = "e-m:e-p270:32:32-p271:32:32-p272:64:64-i64:64-i128:128-f80:128-n8:16:32:64-S128"
target triple = "x86_64-pc-linux-gnu"

@.str.14 = private unnamed_addr constant [28 x i8] c"../openssl/test/x509_test.c\00", align 1
@.str.15 = private unnamed_addr constant [59 x i8] c"Must specify a certificate file self-signed with RSA-PSS.\0A\00", align 1
@pubkeydata = internal constant [91 x i8] c"0Y0\13\06\07*\86H\CE=\02\01\06\08*\86H\CE=\03\01\07\03B\00\04\BF\82\D9\C9K\19CEk\D4Pd\9B\D5\8DZ\D9\DC\C9$#z;H#\E2*$\F2\9Co\87\D0\C4\0F\CC~|\8D\FC\08F7\85O[:\0B\97\D7W*Zkz\0B\E4\E8\9CJ\BB\BF\09M", align 16
@pubkey = internal global ptr null, align 8
@privkey = internal global ptr null, align 8
@bio_err = external global ptr, align 8
@.str.16 = private unnamed_addr constant [23 x i8] c"Failed to create keys\0A\00", align 1
@.str.17 = private unnamed_addr constant [7 x i8] c"SHA384\00", align 1
@signmd = internal global ptr null, align 8
@.str.18 = private unnamed_addr constant [24 x i8] c"Failed to fetch digest\0A\00", align 1
@.str.19 = private unnamed_addr constant [20 x i8] c"test_x509_tbs_cache\00", align 1
@.str.20 = private unnamed_addr constant [24 x i8] c"test_x509_crl_tbs_cache\00", align 1
@.str.21 = private unnamed_addr constant [22 x i8] c"test_asn1_item_verify\00", align 1

; Function Attrs: nounwind uwtable
define dso_local i32 @setup_tests() #0 {
  %1 = alloca i32, align 4
  %2 = alloca ptr, align 8
  %3 = alloca i32, align 4
  %4 = alloca i32, align 4
  call void @llvm.lifetime.start.p0(i64 8, ptr %2) #3
  call void @llvm.lifetime.start.p0(i64 4, ptr %3) #3
  %5 = call i64 @test_get_argument_count()
  %6 = trunc i64 %5 to i32
  store i32 %6, ptr %3, align 4, !tbaa !4
  %7 = load i32, ptr %3, align 4, !tbaa !4
  %8 = icmp ne i32 %7, 1
  br i1 %8, label %9, label %10

9:                                                ; preds = %0
  call void (ptr, i32, ptr, ...) @test_error(ptr noundef @.str.14, i32 noundef 188, ptr noundef @.str.15)
  store i32 0, ptr %1, align 4
  store i32 1, ptr %4, align 4
  br label %29

10:                                               ; preds = %0
  store ptr @pubkeydata, ptr %2, align 8, !tbaa !8
  %11 = call ptr @d2i_PUBKEY(ptr noundef null, ptr noundef %2, i64 noundef 91)
  store ptr %11, ptr @pubkey, align 8, !tbaa !11
  store ptr @privkeydata, ptr %2, align 8, !tbaa !8
  %12 = call ptr @d2i_PrivateKey(i32 noundef 408, ptr noundef null, ptr noundef %2, i64 noundef 121)
  store ptr %12, ptr @privkey, align 8, !tbaa !11
  %13 = load ptr, ptr @pubkey, align 8, !tbaa !11
  %14 = icmp eq ptr %13, null
  br i1 %14, label %18, label %15

15:                                               ; preds = %10
  %16 = load ptr, ptr @privkey, align 8, !tbaa !11
  %17 = icmp eq ptr %16, null
  br i1 %17, label %18, label %21

18:                                               ; preds = %15, %10
  %19 = load ptr, ptr @bio_err, align 8, !tbaa !13
  %20 = call i32 (ptr, ptr, ...) @BIO_printf(ptr noundef %19, ptr noundef @.str.16)
  store i32 0, ptr %1, align 4
  store i32 1, ptr %4, align 4
  br label %29

21:                                               ; preds = %15
  %22 = call ptr @EVP_MD_fetch(ptr noundef null, ptr noundef @.str.17, ptr noundef null)
  store ptr %22, ptr @signmd, align 8, !tbaa !15
  %23 = load ptr, ptr @signmd, align 8, !tbaa !15
  %24 = icmp eq ptr %23, null
  br i1 %24, label %25, label %28

25:                                               ; preds = %21
  %26 = load ptr, ptr @bio_err, align 8, !tbaa !13
  %27 = call i32 (ptr, ptr, ...) @BIO_printf(ptr noundef %26, ptr noundef @.str.18)
  store i32 0, ptr %1, align 4
  store i32 1, ptr %4, align 4
  br label %29

28:                                               ; preds = %21
  call void @add_test(ptr noundef @.str.19, ptr noundef @test_x509_tbs_cache)
  call void @add_test(ptr noundef @.str.20, ptr noundef @test_x509_crl_tbs_cache)
  call void @add_test(ptr noundef @.str.21, ptr noundef @test_asn1_item_verify)
  store i32 1, ptr %1, align 4
  store i32 1, ptr %4, align 4
  br label %29

29:                                               ; preds = %28, %25, %18, %9
  call void @llvm.lifetime.end.p0(i64 4, ptr %3) #3
  call void @llvm.lifetime.end.p0(i64 8, ptr %2) #3
  %30 = load i32, ptr %1, align 4
  ret i32 %30
}