; Function Attrs: nounwind uwtable
define dso_local range(i32 0, 2) i32 @setup_tests() local_unnamed_addr #1 {
  %1 = alloca ptr, align 8
  call void @llvm.lifetime.start.p0(i64 8, ptr nonnull %1) #4
  %2 = tail call i64 @test_get_argument_count() #4
  %3 = and i64 %2, 4294967295
  %.not = icmp eq i64 %3, 1
  br i1 %.not, label %5, label %4

4:                                                ; preds = %0
  tail call void (ptr, i32, ptr, ...) @test_error(ptr noundef nonnull @.str.14, i32 noundef 188, ptr noundef nonnull @.str.15) #4
  br label %21

5:                                                ; preds = %0
  store ptr @pubkeydata, ptr %1, align 8, !tbaa !4
  %6 = call ptr @d2i_PUBKEY(ptr noundef null, ptr noundef nonnull %1, i64 noundef 91) #4
  store ptr %6, ptr @pubkey, align 8, !tbaa !9
  store ptr @privkeydata, ptr %1, align 8, !tbaa !4
  %7 = call ptr @d2i_PrivateKey(i32 noundef 408, ptr noundef null, ptr noundef nonnull %1, i64 noundef 121) #4
  store ptr %7, ptr @privkey, align 8, !tbaa !9
  %8 = load ptr, ptr @pubkey, align 8, !tbaa !9
  %9 = icmp eq ptr %8, null
  %10 = icmp eq ptr %7, null
  %or.cond = select i1 %9, i1 true, i1 %10
  br i1 %or.cond, label %11, label %14

11:                                               ; preds = %5
  %12 = load ptr, ptr @bio_err, align 8, !tbaa !11
  %13 = call i32 (ptr, ptr, ...) @BIO_printf(ptr noundef %12, ptr noundef nonnull @.str.16) #4
  br label %21

14:                                               ; preds = %5
  %15 = call ptr @EVP_MD_fetch(ptr noundef null, ptr noundef nonnull @.str.17, ptr noundef null) #4
  store ptr %15, ptr @signmd, align 8, !tbaa !13
  %16 = icmp eq ptr %15, null
  br i1 %16, label %17, label %20

17:                                               ; preds = %14
  %18 = load ptr, ptr @bio_err, align 8, !tbaa !11
  %19 = call i32 (ptr, ptr, ...) @BIO_printf(ptr noundef %18, ptr noundef nonnull @.str.18) #4
  br label %21

20:                                               ; preds = %14
  call void @add_test(ptr noundef nonnull @.str.19, ptr noundef nonnull @test_x509_tbs_cache) #4
  call void @add_test(ptr noundef nonnull @.str.20, ptr noundef nonnull @test_x509_crl_tbs_cache) #4
  call void @add_test(ptr noundef nonnull @.str.21, ptr noundef nonnull @test_asn1_item_verify) #4
  br label %21

21:                                               ; preds = %20, %17, %11, %4
  %.0 = phi i32 [ 0, %4 ], [ 0, %11 ], [ 0, %17 ], [ 1, %20 ]
  call void @llvm.lifetime.end.p0(i64 8, ptr nonnull %1) #4
  ret i32 %.0
}